target datalayout = "e-m:e-p270:32:32-p271:32:32-p272:64:64-i64:64-i128:128-f80:128-n8:16:32:64-S128"
target triple = "x86_64-pc-linux-gnu"

%struct.__va_list_tag = type { i32, i32, ptr, ptr }
%class.ClassVerifier = type { ptr, ptr, ptr, ptr, ptr, %class.ResourceHashtable, %class.ErrorContext, ptr, %class.methodHandle, %class.VerificationType }
%class.ResourceHashtable = type { %class.ResourceHashtableBase.base, [4 x i8] }
%class.ResourceHashtableBase.base = type <{ %class.FixedResourceHashtableStorage, i32 }>
%class.FixedResourceHashtableStorage = type { [1007 x ptr] }
%class.ErrorContext = type { i32, i32, %class.TypeOrigin, %class.TypeOrigin }
%class.TypeOrigin = type { i32, i32, ptr, %class.VerificationType }
%class.methodHandle = type { ptr, ptr }
%class.VerificationType = type { %union.anon.3 }
%union.anon.3 = type { ptr }
%class.outputStream = type { ptr, i32, i8, i32, i64, %class.TimeStamp, ptr, i64 }
%class.TimeStamp = type { i64 }
%class.stringStream = type <{ %class.outputStream, ptr, i64, i64, i8, [48 x i8], [7 x i8] }>

@.str.107 = private unnamed_addr constant [13 x i8] c" in method '\00", align 1
@.str.108 = private unnamed_addr constant [2 x i8] c"'\00", align 1
@_ZN6Symbol11_vm_symbolsE = external global [0 x ptr], align 8

; Function Attrs: mustprogress nounwind uwtable
define linkonce_odr hidden noundef ptr @_ZNK12methodHandle12non_null_objEv(ptr noundef nonnull align 8 dereferenceable(16) %0) #1 comdat align 2 {
  %2 = alloca ptr, align 8
  store ptr %0, ptr %2, align 8
  %3 = load ptr, ptr %2, align 8
  %4 = getelementptr inbounds %class.methodHandle, ptr %3, i32 0, i32 0
  %5 = load ptr, ptr %4, align 8
  ret ptr %5
}

; Function Attrs: mustprogress nounwind uwtable
define linkonce_odr hidden noundef ptr @_ZNK12methodHandleptEv(ptr noundef nonnull align 8 dereferenceable(16) %0) #1 comdat align 2 {
  %2 = alloca ptr, align 8
  store ptr %0, ptr %2, align 8
  %3 = load ptr, ptr %2, align 8
  %4 = call noundef ptr @_ZNK12methodHandle12non_null_objEv(ptr noundef nonnull align 8 dereferenceable(16) %3)
  ret ptr %4
}

; Function Attrs: mustprogress nounwind uwtable
define linkonce_odr hidden noundef zeroext i1 @_ZNK12methodHandle7is_nullEv(ptr noundef nonnull align 8 dereferenceable(16) %0) #1 comdat align 2 {
  %2 = alloca ptr, align 8
  store ptr %0, ptr %2, align 8
  %3 = load ptr, ptr %2, align 8
  %4 = getelementptr inbounds %class.methodHandle, ptr %3, i32 0, i32 0
  %5 = load ptr, ptr %4, align 8
  %6 = icmp eq ptr %5, null
  ret i1 %6
}

; Function Attrs: mustprogress nounwind uwtable
define linkonce_odr hidden noundef ptr @_ZN9vmSymbols26java_lang_ClassFormatErrorEv() #1 comdat align 2 {
  %1 = load ptr, ptr getelementptr inbounds ([0 x ptr], ptr @_ZN6Symbol11_vm_symbolsE, i64 0, i64 160), align 8
  ret ptr %1
}

; Function Attrs: mustprogress nounwind uwtable
define hidden void @_ZN13ClassVerifier18class_format_errorEPKcz(ptr noundef nonnull align 8 dereferenceable(8192) %0, ptr noundef %1, ...) #1 align 2 {
  %3 = alloca ptr, align 8
  %4 = alloca ptr, align 8
  %5 = alloca %class.stringStream, align 8
  %6 = alloca [1 x %struct.__va_list_tag], align 16
  store ptr %0, ptr %3, align 8
  store ptr %1, ptr %4, align 8
  %7 = load ptr, ptr %3, align 8
  call void @_ZN12stringStreamC1Em(ptr noundef nonnull align 8 dereferenceable(129) %5, i64 noundef 0)
  %8 = call noundef ptr @_ZN9vmSymbols26java_lang_ClassFormatErrorEv()
  %9 = getelementptr inbounds %class.ClassVerifier, ptr %7, i32 0, i32 3
  store ptr %8, ptr %9, align 8
  %10 = getelementptr inbounds [1 x %struct.__va_list_tag], ptr %6, i64 0, i64 0
  call void @llvm.va_start.p0(ptr %10)
  %11 = load ptr, ptr %4, align 8
  %12 = getelementptr inbounds [1 x %struct.__va_list_tag], ptr %6, i64 0, i64 0
  call void @_ZN12outputStream6vprintEPKcP13__va_list_tag(ptr noundef nonnull align 8 dereferenceable(56) %5, ptr noundef %11, ptr noundef %12)
  %13 = getelementptr inbounds [1 x %struct.__va_list_tag], ptr %6, i64 0, i64 0
  call void @llvm.va_end.p0(ptr %13)
  %14 = getelementptr inbounds %class.ClassVerifier, ptr %7, i32 0, i32 8
  %15 = call noundef zeroext i1 @_ZNK12methodHandle7is_nullEv(ptr noundef nonnull align 8 dereferenceable(16) %14)
  br i1 %15, label %19, label %16

16:                                               ; preds = %2
  call void (ptr, ptr, ...) @_ZN12outputStream5printEPKcz(ptr noundef nonnull align 8 dereferenceable(56) %5, ptr noundef @.str.107)
  %17 = getelementptr inbounds %class.ClassVerifier, ptr %7, i32 0, i32 8
  %18 = call noundef ptr @_ZNK12methodHandleptEv(ptr noundef nonnull align 8 dereferenceable(16) %17)
  call void @_ZNK6Method19print_external_nameEP12outputStream(ptr noundef nonnull align 8 dereferenceable(88) %18, ptr noundef %5)
  call void (ptr, ptr, ...) @_ZN12outputStream5printEPKcz(ptr noundef nonnull align 8 dereferenceable(56) %5, ptr noundef @.str.108)
  br label %19

19:                                               ; preds = %16, %2
  %20 = call noundef ptr @_ZNK12stringStream9as_stringEb(ptr noundef nonnull align 8 dereferenceable(129) %5, i1 noundef zeroext false)
  %21 = getelementptr inbounds %class.ClassVerifier, ptr %7, i32 0, i32 4
  store ptr %20, ptr %21, align 8
  call void @_ZN12stringStreamD1Ev(ptr noundef nonnull align 8 dereferenceable(129) %5) #11
  ret void
}