; Function Attrs: mustprogress nounwind uwtable
define hidden void @_ZN13ClassVerifier18class_format_errorEPKcz(ptr nocapture noundef nonnull align 8 dereferenceable(8192) %0, ptr noundef %1, ...) local_unnamed_addr #1 align 2 {
  %3 = alloca %class.stringStream, align 8
  %4 = alloca [1 x %struct.__va_list_tag], align 16
  call void @_ZN12stringStreamC1Em(ptr noundef nonnull align 8 dereferenceable(129) %3, i64 noundef 0) #20
  %5 = load ptr, ptr getelementptr inbounds (i8, ptr @_ZN6Symbol11_vm_symbolsE, i64 1280), align 8
  %6 = getelementptr inbounds i8, ptr %0, i64 24
  store ptr %5, ptr %6, align 8
  call void @llvm.va_start.p0(ptr nonnull %4)
  call void @_ZN12outputStream6vprintEPKcP13__va_list_tag(ptr noundef nonnull align 8 dereferenceable(56) %3, ptr noundef %1, ptr noundef nonnull %4) #20
  call void @llvm.va_end.p0(ptr nonnull %4)
  %7 = getelementptr inbounds i8, ptr %0, i64 8168
  %8 = load ptr, ptr %7, align 8
  %9 = icmp eq ptr %8, null
  br i1 %9, label %12, label %10

10:                                               ; preds = %2
  call void (ptr, ptr, ...) @_ZN12outputStream5printEPKcz(ptr noundef nonnull align 8 dereferenceable(56) %3, ptr noundef nonnull @.str.107) #20
  %11 = load ptr, ptr %7, align 8
  call void @_ZNK6Method19print_external_nameEP12outputStream(ptr noundef nonnull align 8 dereferenceable(88) %11, ptr noundef nonnull %3) #20
  call void (ptr, ptr, ...) @_ZN12outputStream5printEPKcz(ptr noundef nonnull align 8 dereferenceable(56) %3, ptr noundef nonnull @.str.108) #20
  br label %12

12:                                               ; preds = %10, %2
  %13 = call noundef ptr @_ZNK12stringStream9as_stringEb(ptr noundef nonnull align 8 dereferenceable(129) %3, i1 noundef zeroext false) #20
  %14 = getelementptr inbounds i8, ptr %0, i64 32
  store ptr %13, ptr %14, align 8
  call void @_ZN12stringStreamD1Ev(ptr noundef nonnull align 8 dereferenceable(129) %3) #20
  ret void
}